; Function Attrs: nounwind uwtable
define internal fastcc range(i32 0, 5) i32 @ACLCheckChannelAgainstList(ptr noundef %0, ptr noundef %1, i32 noundef %2, i32 noundef %3) unnamed_addr #0 {
  %5 = alloca %struct.listIter, align 8
  call void @llvm.lifetime.start.p0(i64 16, ptr nonnull %5) #25
  call void @listRewind(ptr noundef %0, ptr noundef nonnull %5) #25
  %6 = call ptr @listNext(ptr noundef nonnull %5) #25
  %.not19 = icmp eq ptr %6, null
  br i1 %.not19, label %._crit_edge, label %.lr.ph

.lr.ph:                                           ; preds = %4
  %.not14 = icmp eq i32 %3, 0
  br i1 %.not14, label %.lr.ph.split.us, label %.lr.ph.split

.lr.ph.split.us:                                  ; preds = %.lr.ph, %.critedge18.us
  %7 = phi ptr [ %34, %.critedge18.us ], [ %6, %.lr.ph ]
  %8 = getelementptr inbounds nuw i8, ptr %7, i64 16
  %9 = load ptr, ptr %8, align 8, !tbaa !85
  %10 = getelementptr inbounds i8, ptr %9, i64 -1
  %11 = load i8, ptr %10, align 1, !tbaa !19
  %12 = zext i8 %11 to i32
  %13 = and i32 %12, 7
  switch i32 %13, label %sdslen.exit.us [
    i32 0, label %29
    i32 1, label %25
    i32 2, label %21
    i32 3, label %17
    i32 4, label %14
  ]

14:                                               ; preds = %.lr.ph.split.us
  %15 = getelementptr inbounds i8, ptr %9, i64 -17
  %16 = load i64, ptr %15, align 1, !tbaa !5
  br label %sdslen.exit.us

17:                                               ; preds = %.lr.ph.split.us
  %18 = getelementptr inbounds i8, ptr %9, i64 -9
  %19 = load i32, ptr %18, align 1, !tbaa !102
  %20 = zext i32 %19 to i64
  br label %sdslen.exit.us

21:                                               ; preds = %.lr.ph.split.us
  %22 = getelementptr inbounds i8, ptr %9, i64 -5
  %23 = load i16, ptr %22, align 1, !tbaa !26
  %24 = zext i16 %23 to i64
  br label %sdslen.exit.us

25:                                               ; preds = %.lr.ph.split.us
  %26 = getelementptr inbounds i8, ptr %9, i64 -3
  %27 = load i8, ptr %26, align 1, !tbaa !19
  %28 = zext i8 %27 to i64
  br label %sdslen.exit.us

29:                                               ; preds = %.lr.ph.split.us
  %30 = lshr i32 %12, 3
  %31 = zext nneg i32 %30 to i64
  br label %sdslen.exit.us

sdslen.exit.us:                                   ; preds = %29, %25, %21, %17, %14, %.lr.ph.split.us
  %.0.i.us = phi i64 [ %16, %14 ], [ %20, %17 ], [ %24, %21 ], [ %28, %25 ], [ %31, %29 ], [ 0, %.lr.ph.split.us ]
  %32 = trunc i64 %.0.i.us to i32
  %33 = call i32 @stringmatchlen(ptr noundef nonnull %9, i32 noundef %32, ptr noundef %1, i32 noundef %2, i32 noundef 0) #25
  %.not16.us = icmp eq i32 %33, 0
  br i1 %.not16.us, label %.critedge18.us, label %._crit_edge, !llvm.loop !187

.critedge18.us:                                   ; preds = %sdslen.exit.us
  %34 = call ptr @listNext(ptr noundef nonnull %5) #25
  %.not.us = icmp eq ptr %34, null
  br i1 %.not.us, label %._crit_edge, label %.lr.ph.split.us

.lr.ph.split:                                     ; preds = %.lr.ph, %.critedge18
  %35 = phi ptr [ %39, %.critedge18 ], [ %6, %.lr.ph ]
  %36 = getelementptr inbounds nuw i8, ptr %35, i64 16
  %37 = load ptr, ptr %36, align 8, !tbaa !85
  %38 = call i32 @strcmp(ptr noundef nonnull dereferenceable(1) %37, ptr noundef nonnull dereferenceable(1) %1) #29
  %.not15 = icmp eq i32 %38, 0
  br i1 %.not15, label %._crit_edge, label %.critedge18, !llvm.loop !187

.critedge18:                                      ; preds = %.lr.ph.split
  %39 = call ptr @listNext(ptr noundef nonnull %5) #25
  %.not = icmp eq ptr %39, null
  br i1 %.not, label %._crit_edge, label %.lr.ph.split

._crit_edge:                                      ; preds = %.lr.ph.split, %.critedge18, %sdslen.exit.us, %.critedge18.us, %4
  %.2 = phi i32 [ 4, %4 ], [ 4, %.critedge18.us ], [ 0, %sdslen.exit.us ], [ 4, %.critedge18 ], [ 0, %.lr.ph.split ]
  call void @llvm.lifetime.end.p0(i64 16, ptr nonnull %5) #25
  ret i32 %.2
}